target datalayout = "e-m:e-p270:32:32-p271:32:32-p272:64:64-i64:64-i128:128-f80:128-n8:16:32:64-S128"
target triple = "x86_64-pc-linux-gnu"

@H5AC_init_g = external global i8, align 1
@H5_libterm_g = external global i8, align 1
@.str.1 = private unnamed_addr constant [109 x i8] c"generated/home/dtcxzyw/WorkSpace/Projects/compilers/llvm-opt-benchmark/bench/hdf5/hdf5/src/H5ACproxy_entry.c\00", align 1
@H5E_CACHE_g = external global i64, align 8
@H5E_CANTSERIALIZE_g = external global i64, align 8
@__func__.H5AC__proxy_entry_serialize = private unnamed_addr constant [28 x i8] c"H5AC__proxy_entry_serialize\00", align 1
@.str.21 = private unnamed_addr constant [24 x i8] c"called unreachable fcn.\00", align 1

; Function Attrs: nounwind uwtable
define internal i32 @H5AC__proxy_entry_serialize(ptr noundef %0, ptr noundef %1, i64 noundef %2, ptr noundef %3) #0 {
  %5 = alloca ptr, align 8
  %6 = alloca ptr, align 8
  %7 = alloca i64, align 8
  %8 = alloca ptr, align 8
  store ptr %0, ptr %5, align 8, !tbaa !15
  store ptr %1, ptr %6, align 8, !tbaa !3
  store i64 %2, ptr %7, align 8, !tbaa !13
  store ptr %3, ptr %8, align 8, !tbaa !3
  %9 = load i8, ptr @H5AC_init_g, align 1, !tbaa !9, !range !11, !noundef !12
  %10 = trunc i8 %9 to i1
  br i1 %10, label %15, label %11

11:                                               ; preds = %4
  %12 = load i8, ptr @H5_libterm_g, align 1, !tbaa !9, !range !11, !noundef !12
  %13 = trunc i8 %12 to i1
  %14 = xor i1 %13, true
  br label %15

15:                                               ; preds = %11, %4
  %16 = phi i1 [ true, %4 ], [ %14, %11 ]
  %17 = xor i1 %16, true
  %18 = xor i1 %17, true
  %19 = zext i1 %18 to i32
  %20 = sext i32 %19 to i64
  %21 = call i64 @llvm.expect.i64(i64 %20, i64 1)
  %22 = icmp ne i64 %21, 0
  br i1 %22, label %23, label %29

23:                                               ; preds = %15
  br label %24

24:                                               ; preds = %23
  %25 = load i64, ptr @H5E_CACHE_g, align 8, !tbaa !13
  %26 = load i64, ptr @H5E_CANTSERIALIZE_g, align 8, !tbaa !13
  %27 = call i32 (ptr, ptr, i32, i64, i64, ptr, ...) @H5E_printf_stack(ptr noundef @.str.1, ptr noundef @__func__.H5AC__proxy_entry_serialize, i32 noundef 461, i64 noundef %25, i64 noundef %26, ptr noundef @.str.21)
  br label %28

28:                                               ; preds = %24
  br label %29

29:                                               ; preds = %28, %15
  ret i32 -1
}